; Function Attrs: nounwind uwtable
define void @dt_lib_gui_update(ptr noundef %0) local_unnamed_addr #0 {
  %.not = icmp eq ptr %0, null
  br i1 %.not, label %9, label %2

2:                                                ; preds = %1
  %3 = getelementptr inbounds nuw i8, ptr %0, i64 128
  %4 = load ptr, ptr %3, align 8, !tbaa !85
  %.not7 = icmp eq ptr %4, null
  br i1 %.not7, label %9, label %5

5:                                                ; preds = %2
  %6 = getelementptr inbounds nuw i8, ptr %0, i64 432
  %7 = load i32, ptr %6, align 8, !tbaa !83
  %.not8 = icmp eq i32 %7, 0
  br i1 %.not8, label %8, label %9

8:                                                ; preds = %5
  tail call void %4(ptr noundef nonnull %0) #19
  store i32 1, ptr %6, align 8, !tbaa !83
  br label %9

9:                                                ; preds = %8, %5, %2, %1
  ret void
}